target datalayout = "e-m:e-p270:32:32-p271:32:32-p272:64:64-i64:64-i128:128-f80:128-n8:16:32:64-S128"
target triple = "x86_64-pc-linux-gnu"

%struct.mbedtls_ssl_context = type { ptr, i32, i32, i32, i32, i32, ptr, ptr, ptr, ptr, ptr, ptr, ptr, ptr, ptr, ptr, ptr, ptr, ptr, ptr, ptr, ptr, ptr, ptr, ptr, ptr, ptr, ptr, ptr, ptr, ptr, ptr, ptr, i32, i64, i64, i16, i64, i64, i64, i64, i32, i32, i8, i8, i32, i8, ptr, ptr, ptr, ptr, ptr, ptr, ptr, i32, i64, i64, [8 x i8], i16, ptr, ptr, ptr, i64, i32, i64, [12 x i8], [12 x i8], [32 x i8], i8, i8, ptr, ptr, %union.mbedtls_ssl_user_data_t }
%union.mbedtls_ssl_user_data_t = type { i64 }

@.str = private unnamed_addr constant [131 x i8] c"generated/home/dtcxzyw/WorkSpace/Projects/compilers/llvm-opt-benchmark/bench/lief/bench_build/mbed_src/library/ssl_tls13_generic.c\00", align 1
@.str.19 = private unnamed_addr constant [20 x i8] c"=> handshake wrapup\00", align 1
@.str.20 = private unnamed_addr constant [47 x i8] c"Switch to application keys for inbound traffic\00", align 1
@.str.21 = private unnamed_addr constant [48 x i8] c"Switch to application keys for outbound traffic\00", align 1
@.str.22 = private unnamed_addr constant [20 x i8] c"<= handshake wrapup\00", align 1

; Function Attrs: nounwind uwtable
define hidden void @mbedtls_ssl_tls13_handshake_wrapup(ptr noundef %0) #0 {
  %2 = alloca ptr, align 8
  store ptr %0, ptr %2, align 8, !tbaa !3
  %3 = load ptr, ptr %2, align 8, !tbaa !3
  call void (ptr, i32, ptr, i32, ptr, ...) @mbedtls_debug_print_msg(ptr noundef %3, i32 noundef 3, ptr noundef @.str, i32 noundef 1233, ptr noundef @.str.19)
  %4 = load ptr, ptr %2, align 8, !tbaa !3
  call void (ptr, i32, ptr, i32, ptr, ...) @mbedtls_debug_print_msg(ptr noundef %4, i32 noundef 1, ptr noundef @.str, i32 noundef 1235, ptr noundef @.str.20)
  %5 = load ptr, ptr %2, align 8, !tbaa !3
  %6 = load ptr, ptr %2, align 8, !tbaa !3
  %7 = getelementptr inbounds nuw %struct.mbedtls_ssl_context, ptr %6, i32 0, i32 21
  %8 = load ptr, ptr %7, align 8, !tbaa !95
  call void @mbedtls_ssl_set_inbound_transform(ptr noundef %5, ptr noundef %8)
  %9 = load ptr, ptr %2, align 8, !tbaa !3
  call void (ptr, i32, ptr, i32, ptr, ...) @mbedtls_debug_print_msg(ptr noundef %9, i32 noundef 1, ptr noundef @.str, i32 noundef 1238, ptr noundef @.str.21)
  %10 = load ptr, ptr %2, align 8, !tbaa !3
  %11 = load ptr, ptr %2, align 8, !tbaa !3
  %12 = getelementptr inbounds nuw %struct.mbedtls_ssl_context, ptr %11, i32 0, i32 21
  %13 = load ptr, ptr %12, align 8, !tbaa !95
  call void @mbedtls_ssl_set_outbound_transform(ptr noundef %10, ptr noundef %13)
  %14 = load ptr, ptr %2, align 8, !tbaa !3
  %15 = getelementptr inbounds nuw %struct.mbedtls_ssl_context, ptr %14, i32 0, i32 14
  %16 = load ptr, ptr %15, align 8, !tbaa !96
  %17 = icmp ne ptr %16, null
  br i1 %17, label %18, label %25

18:                                               ; preds = %1
  %19 = load ptr, ptr %2, align 8, !tbaa !3
  %20 = getelementptr inbounds nuw %struct.mbedtls_ssl_context, ptr %19, i32 0, i32 14
  %21 = load ptr, ptr %20, align 8, !tbaa !96
  call void @mbedtls_ssl_session_free(ptr noundef %21)
  %22 = load ptr, ptr %2, align 8, !tbaa !3
  %23 = getelementptr inbounds nuw %struct.mbedtls_ssl_context, ptr %22, i32 0, i32 14
  %24 = load ptr, ptr %23, align 8, !tbaa !96
  call void @free(ptr noundef %24) #10
  br label %25

25:                                               ; preds = %18, %1
  %26 = load ptr, ptr %2, align 8, !tbaa !3
  %27 = getelementptr inbounds nuw %struct.mbedtls_ssl_context, ptr %26, i32 0, i32 15
  %28 = load ptr, ptr %27, align 8, !tbaa !57
  %29 = load ptr, ptr %2, align 8, !tbaa !3
  %30 = getelementptr inbounds nuw %struct.mbedtls_ssl_context, ptr %29, i32 0, i32 14
  store ptr %28, ptr %30, align 8, !tbaa !96
  %31 = load ptr, ptr %2, align 8, !tbaa !3
  %32 = getelementptr inbounds nuw %struct.mbedtls_ssl_context, ptr %31, i32 0, i32 15
  store ptr null, ptr %32, align 8, !tbaa !57
  %33 = load ptr, ptr %2, align 8, !tbaa !3
  call void (ptr, i32, ptr, i32, ptr, ...) @mbedtls_debug_print_msg(ptr noundef %33, i32 noundef 3, ptr noundef @.str, i32 noundef 1251, ptr noundef @.str.22)
  ret void
}