; Function Attrs: nounwind uwtable
define hidden void @mbedtls_ssl_tls13_handshake_wrapup(ptr noundef %0) local_unnamed_addr #0 {
  tail call void (ptr, i32, ptr, i32, ptr, ...) @mbedtls_debug_print_msg(ptr noundef %0, i32 noundef 3, ptr noundef nonnull @.str, i32 noundef 1233, ptr noundef nonnull @.str.19) #8
  tail call void (ptr, i32, ptr, i32, ptr, ...) @mbedtls_debug_print_msg(ptr noundef %0, i32 noundef 1, ptr noundef nonnull @.str, i32 noundef 1235, ptr noundef nonnull @.str.20) #8
  %2 = getelementptr inbounds nuw i8, ptr %0, i64 152
  %3 = load ptr, ptr %2, align 8, !tbaa !94
  tail call void @mbedtls_ssl_set_inbound_transform(ptr noundef %0, ptr noundef %3) #8
  tail call void (ptr, i32, ptr, i32, ptr, ...) @mbedtls_debug_print_msg(ptr noundef %0, i32 noundef 1, ptr noundef nonnull @.str, i32 noundef 1238, ptr noundef nonnull @.str.21) #8
  %4 = load ptr, ptr %2, align 8, !tbaa !94
  tail call void @mbedtls_ssl_set_outbound_transform(ptr noundef %0, ptr noundef %4) #8
  %5 = getelementptr inbounds nuw i8, ptr %0, i64 96
  %6 = load ptr, ptr %5, align 8, !tbaa !95
  %.not = icmp eq ptr %6, null
  br i1 %.not, label %9, label %7

7:                                                ; preds = %1
  tail call void @mbedtls_ssl_session_free(ptr noundef nonnull %6) #8
  %8 = load ptr, ptr %5, align 8, !tbaa !95
  tail call void @free(ptr noundef %8) #8
  br label %9

9:                                                ; preds = %7, %1
  %10 = getelementptr inbounds nuw i8, ptr %0, i64 104
  %11 = load ptr, ptr %10, align 8, !tbaa !55
  store ptr %11, ptr %5, align 8, !tbaa !95
  store ptr null, ptr %10, align 8, !tbaa !55
  tail call void (ptr, i32, ptr, i32, ptr, ...) @mbedtls_debug_print_msg(ptr noundef nonnull %0, i32 noundef 3, ptr noundef nonnull @.str, i32 noundef 1251, ptr noundef nonnull @.str.22) #8
  ret void
}